target datalayout = "e-m:e-p270:32:32-p271:32:32-p272:64:64-i64:64-i128:128-f80:128-n8:16:32:64-S128"
target triple = "x86_64-pc-linux-gnu"

%struct.WebPDecBuffer = type { i32, i32, i32, i32, %union.anon, [4 x i32], ptr }
%union.anon = type { %struct.WebPYUVABuffer }
%struct.WebPYUVABuffer = type { ptr, ptr, ptr, ptr, i32, i32, i32, i32, i64, i64, i64, i64 }
%struct.WebPRGBABuffer = type { ptr, i32, i64 }

@kModeBpp = internal constant [13 x i8] c"\03\04\03\04\04\02\02\04\04\04\02\01\01", align 1

; Function Attrs: inlinehint nounwind uwtable
define internal i32 @WebPIsPremultipliedMode(i32 noundef %0) #1 {
  %2 = alloca i32, align 4
  store i32 %0, ptr %2, align 4, !tbaa !3
  %3 = load i32, ptr %2, align 4, !tbaa !3
  %4 = icmp eq i32 %3, 7
  br i1 %4, label %14, label %5

5:                                                ; preds = %1
  %6 = load i32, ptr %2, align 4, !tbaa !3
  %7 = icmp eq i32 %6, 8
  br i1 %7, label %14, label %8

8:                                                ; preds = %5
  %9 = load i32, ptr %2, align 4, !tbaa !3
  %10 = icmp eq i32 %9, 9
  br i1 %10, label %14, label %11

11:                                               ; preds = %8
  %12 = load i32, ptr %2, align 4, !tbaa !3
  %13 = icmp eq i32 %12, 10
  br label %14

14:                                               ; preds = %11, %8, %5, %1
  %15 = phi i1 [ true, %8 ], [ true, %5 ], [ true, %1 ], [ %13, %11 ]
  %16 = zext i1 %15 to i32
  ret i32 %16
}

; Function Attrs: inlinehint nounwind uwtable
define internal i32 @WebPIsAlphaMode(i32 noundef %0) #1 {
  %2 = alloca i32, align 4
  store i32 %0, ptr %2, align 4, !tbaa !3
  %3 = load i32, ptr %2, align 4, !tbaa !3
  %4 = icmp eq i32 %3, 1
  br i1 %4, label %21, label %5

5:                                                ; preds = %1
  %6 = load i32, ptr %2, align 4, !tbaa !3
  %7 = icmp eq i32 %6, 3
  br i1 %7, label %21, label %8

8:                                                ; preds = %5
  %9 = load i32, ptr %2, align 4, !tbaa !3
  %10 = icmp eq i32 %9, 4
  br i1 %10, label %21, label %11

11:                                               ; preds = %8
  %12 = load i32, ptr %2, align 4, !tbaa !3
  %13 = icmp eq i32 %12, 5
  br i1 %13, label %21, label %14

14:                                               ; preds = %11
  %15 = load i32, ptr %2, align 4, !tbaa !3
  %16 = icmp eq i32 %15, 12
  br i1 %16, label %21, label %17

17:                                               ; preds = %14
  %18 = load i32, ptr %2, align 4, !tbaa !3
  %19 = call i32 @WebPIsPremultipliedMode(i32 noundef %18)
  %20 = icmp ne i32 %19, 0
  br label %21

21:                                               ; preds = %17, %14, %11, %8, %5, %1
  %22 = phi i1 [ true, %14 ], [ true, %11 ], [ true, %8 ], [ true, %5 ], [ true, %1 ], [ %20, %17 ]
  %23 = zext i1 %22 to i32
  ret i32 %23
}

; Function Attrs: inlinehint nounwind uwtable
define internal i32 @WebPIsRGBMode(i32 noundef %0) #1 {
  %2 = alloca i32, align 4
  store i32 %0, ptr %2, align 4, !tbaa !3
  %3 = load i32, ptr %2, align 4, !tbaa !3
  %4 = icmp ult i32 %3, 11
  %5 = zext i1 %4 to i32
  ret i32 %5
}

; Function Attrs: nounwind uwtable
define hidden i32 @WebPCopyDecBufferPixels(ptr noundef %0, ptr noundef %1) #0 {
  %3 = alloca i32, align 4
  %4 = alloca ptr, align 8
  %5 = alloca ptr, align 8
  %6 = alloca ptr, align 8
  %7 = alloca ptr, align 8
  %8 = alloca ptr, align 8
  %9 = alloca ptr, align 8
  store ptr %0, ptr %4, align 8, !tbaa !7
  store ptr %1, ptr %5, align 8, !tbaa !7
  %10 = load ptr, ptr %4, align 8, !tbaa !7
  %11 = getelementptr inbounds nuw %struct.WebPDecBuffer, ptr %10, i32 0, i32 1
  %12 = load i32, ptr %11, align 4, !tbaa !43
  %13 = load ptr, ptr %5, align 8, !tbaa !7
  %14 = getelementptr inbounds nuw %struct.WebPDecBuffer, ptr %13, i32 0, i32 1
  store i32 %12, ptr %14, align 4, !tbaa !43
  %15 = load ptr, ptr %4, align 8, !tbaa !7
  %16 = getelementptr inbounds nuw %struct.WebPDecBuffer, ptr %15, i32 0, i32 2
  %17 = load i32, ptr %16, align 8, !tbaa !15
  %18 = load ptr, ptr %5, align 8, !tbaa !7
  %19 = getelementptr inbounds nuw %struct.WebPDecBuffer, ptr %18, i32 0, i32 2
  store i32 %17, ptr %19, align 8, !tbaa !15
  %20 = load ptr, ptr %5, align 8, !tbaa !7
  %21 = call i32 @CheckDecBuffer(ptr noundef %20)
  %22 = icmp ne i32 %21, 0
  br i1 %22, label %23, label %24

23:                                               ; preds = %2
  store i32 2, ptr %3, align 4
  br label %154

24:                                               ; preds = %2
  %25 = load ptr, ptr %4, align 8, !tbaa !7
  %26 = getelementptr inbounds nuw %struct.WebPDecBuffer, ptr %25, i32 0, i32 0
  %27 = load i32, ptr %26, align 8, !tbaa !10
  %28 = call i32 @WebPIsRGBMode(i32 noundef %27)
  %29 = icmp ne i32 %28, 0
  br i1 %29, label %30, label %61

30:                                               ; preds = %24
  call void @llvm.lifetime.start.p0(i64 8, ptr %6) #7
  %31 = load ptr, ptr %4, align 8, !tbaa !7
  %32 = getelementptr inbounds nuw %struct.WebPDecBuffer, ptr %31, i32 0, i32 4
  store ptr %32, ptr %6, align 8, !tbaa !13
  call void @llvm.lifetime.start.p0(i64 8, ptr %7) #7
  %33 = load ptr, ptr %5, align 8, !tbaa !7
  %34 = getelementptr inbounds nuw %struct.WebPDecBuffer, ptr %33, i32 0, i32 4
  store ptr %34, ptr %7, align 8, !tbaa !13
  %35 = load ptr, ptr %6, align 8, !tbaa !13
  %36 = getelementptr inbounds nuw %struct.WebPRGBABuffer, ptr %35, i32 0, i32 0
  %37 = load ptr, ptr %36, align 8, !tbaa !19
  %38 = load ptr, ptr %6, align 8, !tbaa !13
  %39 = getelementptr inbounds nuw %struct.WebPRGBABuffer, ptr %38, i32 0, i32 1
  %40 = load i32, ptr %39, align 8, !tbaa !16
  %41 = load ptr, ptr %7, align 8, !tbaa !13
  %42 = getelementptr inbounds nuw %struct.WebPRGBABuffer, ptr %41, i32 0, i32 0
  %43 = load ptr, ptr %42, align 8, !tbaa !19
  %44 = load ptr, ptr %7, align 8, !tbaa !13
  %45 = getelementptr inbounds nuw %struct.WebPRGBABuffer, ptr %44, i32 0, i32 1
  %46 = load i32, ptr %45, align 8, !tbaa !16
  %47 = load ptr, ptr %4, align 8, !tbaa !7
  %48 = getelementptr inbounds nuw %struct.WebPDecBuffer, ptr %47, i32 0, i32 1
  %49 = load i32, ptr %48, align 4, !tbaa !43
  %50 = load ptr, ptr %4, align 8, !tbaa !7
  %51 = getelementptr inbounds nuw %struct.WebPDecBuffer, ptr %50, i32 0, i32 0
  %52 = load i32, ptr %51, align 8, !tbaa !10
  %53 = zext i32 %52 to i64
  %54 = getelementptr inbounds nuw [13 x i8], ptr @kModeBpp, i64 0, i64 %53
  %55 = load i8, ptr %54, align 1, !tbaa !47
  %56 = zext i8 %55 to i32
  %57 = mul nsw i32 %49, %56
  %58 = load ptr, ptr %4, align 8, !tbaa !7
  %59 = getelementptr inbounds nuw %struct.WebPDecBuffer, ptr %58, i32 0, i32 2
  %60 = load i32, ptr %59, align 8, !tbaa !15
  call void @WebPCopyPlane(ptr noundef %37, i32 noundef %40, ptr noundef %43, i32 noundef %46, i32 noundef %57, i32 noundef %60)
  call void @llvm.lifetime.end.p0(i64 8, ptr %7) #7
  call void @llvm.lifetime.end.p0(i64 8, ptr %6) #7
  br label %153

61:                                               ; preds = %24
  call void @llvm.lifetime.start.p0(i64 8, ptr %8) #7
  %62 = load ptr, ptr %4, align 8, !tbaa !7
  %63 = getelementptr inbounds nuw %struct.WebPDecBuffer, ptr %62, i32 0, i32 4
  store ptr %63, ptr %8, align 8, !tbaa !20
  call void @llvm.lifetime.start.p0(i64 8, ptr %9) #7
  %64 = load ptr, ptr %5, align 8, !tbaa !7
  %65 = getelementptr inbounds nuw %struct.WebPDecBuffer, ptr %64, i32 0, i32 4
  store ptr %65, ptr %9, align 8, !tbaa !20
  %66 = load ptr, ptr %8, align 8, !tbaa !20
  %67 = getelementptr inbounds nuw %struct.WebPYUVABuffer, ptr %66, i32 0, i32 0
  %68 = load ptr, ptr %67, align 8, !tbaa !25
  %69 = load ptr, ptr %8, align 8, !tbaa !20
  %70 = getelementptr inbounds nuw %struct.WebPYUVABuffer, ptr %69, i32 0, i32 4
  %71 = load i32, ptr %70, align 8, !tbaa !23
  %72 = load ptr, ptr %9, align 8, !tbaa !20
  %73 = getelementptr inbounds nuw %struct.WebPYUVABuffer, ptr %72, i32 0, i32 0
  %74 = load ptr, ptr %73, align 8, !tbaa !25
  %75 = load ptr, ptr %9, align 8, !tbaa !20
  %76 = getelementptr inbounds nuw %struct.WebPYUVABuffer, ptr %75, i32 0, i32 4
  %77 = load i32, ptr %76, align 8, !tbaa !23
  %78 = load ptr, ptr %4, align 8, !tbaa !7
  %79 = getelementptr inbounds nuw %struct.WebPDecBuffer, ptr %78, i32 0, i32 1
  %80 = load i32, ptr %79, align 4, !tbaa !43
  %81 = load ptr, ptr %4, align 8, !tbaa !7
  %82 = getelementptr inbounds nuw %struct.WebPDecBuffer, ptr %81, i32 0, i32 2
  %83 = load i32, ptr %82, align 8, !tbaa !15
  call void @WebPCopyPlane(ptr noundef %68, i32 noundef %71, ptr noundef %74, i32 noundef %77, i32 noundef %80, i32 noundef %83)
  %84 = load ptr, ptr %8, align 8, !tbaa !20
  %85 = getelementptr inbounds nuw %struct.WebPYUVABuffer, ptr %84, i32 0, i32 1
  %86 = load ptr, ptr %85, align 8, !tbaa !27
  %87 = load ptr, ptr %8, align 8, !tbaa !20
  %88 = getelementptr inbounds nuw %struct.WebPYUVABuffer, ptr %87, i32 0, i32 5
  %89 = load i32, ptr %88, align 4, !tbaa !26
  %90 = load ptr, ptr %9, align 8, !tbaa !20
  %91 = getelementptr inbounds nuw %struct.WebPYUVABuffer, ptr %90, i32 0, i32 1
  %92 = load ptr, ptr %91, align 8, !tbaa !27
  %93 = load ptr, ptr %9, align 8, !tbaa !20
  %94 = getelementptr inbounds nuw %struct.WebPYUVABuffer, ptr %93, i32 0, i32 5
  %95 = load i32, ptr %94, align 4, !tbaa !26
  %96 = load ptr, ptr %4, align 8, !tbaa !7
  %97 = getelementptr inbounds nuw %struct.WebPDecBuffer, ptr %96, i32 0, i32 1
  %98 = load i32, ptr %97, align 4, !tbaa !43
  %99 = add nsw i32 %98, 1
  %100 = sdiv i32 %99, 2
  %101 = load ptr, ptr %4, align 8, !tbaa !7
  %102 = getelementptr inbounds nuw %struct.WebPDecBuffer, ptr %101, i32 0, i32 2
  %103 = load i32, ptr %102, align 8, !tbaa !15
  %104 = add nsw i32 %103, 1
  %105 = sdiv i32 %104, 2
  call void @WebPCopyPlane(ptr noundef %86, i32 noundef %89, ptr noundef %92, i32 noundef %95, i32 noundef %100, i32 noundef %105)
  %106 = load ptr, ptr %8, align 8, !tbaa !20
  %107 = getelementptr inbounds nuw %struct.WebPYUVABuffer, ptr %106, i32 0, i32 2
  %108 = load ptr, ptr %107, align 8, !tbaa !29
  %109 = load ptr, ptr %8, align 8, !tbaa !20
  %110 = getelementptr inbounds nuw %struct.WebPYUVABuffer, ptr %109, i32 0, i32 6
  %111 = load i32, ptr %110, align 8, !tbaa !28
  %112 = load ptr, ptr %9, align 8, !tbaa !20
  %113 = getelementptr inbounds nuw %struct.WebPYUVABuffer, ptr %112, i32 0, i32 2
  %114 = load ptr, ptr %113, align 8, !tbaa !29
  %115 = load ptr, ptr %9, align 8, !tbaa !20
  %116 = getelementptr inbounds nuw %struct.WebPYUVABuffer, ptr %115, i32 0, i32 6
  %117 = load i32, ptr %116, align 8, !tbaa !28
  %118 = load ptr, ptr %4, align 8, !tbaa !7
  %119 = getelementptr inbounds nuw %struct.WebPDecBuffer, ptr %118, i32 0, i32 1
  %120 = load i32, ptr %119, align 4, !tbaa !43
  %121 = add nsw i32 %120, 1
  %122 = sdiv i32 %121, 2
  %123 = load ptr, ptr %4, align 8, !tbaa !7
  %124 = getelementptr inbounds nuw %struct.WebPDecBuffer, ptr %123, i32 0, i32 2
  %125 = load i32, ptr %124, align 8, !tbaa !15
  %126 = add nsw i32 %125, 1
  %127 = sdiv i32 %126, 2
  call void @WebPCopyPlane(ptr noundef %108, i32 noundef %111, ptr noundef %114, i32 noundef %117, i32 noundef %122, i32 noundef %127)
  %128 = load ptr, ptr %4, align 8, !tbaa !7
  %129 = getelementptr inbounds nuw %struct.WebPDecBuffer, ptr %128, i32 0, i32 0
  %130 = load i32, ptr %129, align 8, !tbaa !10
  %131 = call i32 @WebPIsAlphaMode(i32 noundef %130)
  %132 = icmp ne i32 %131, 0
  br i1 %132, label %133, label %152

133:                                              ; preds = %61
  %134 = load ptr, ptr %8, align 8, !tbaa !20
  %135 = getelementptr inbounds nuw %struct.WebPYUVABuffer, ptr %134, i32 0, i32 3
  %136 = load ptr, ptr %135, align 8, !tbaa !30
  %137 = load ptr, ptr %8, align 8, !tbaa !20
  %138 = getelementptr inbounds nuw %struct.WebPYUVABuffer, ptr %137, i32 0, i32 7
  %139 = load i32, ptr %138, align 4, !tbaa !31
  %140 = load ptr, ptr %9, align 8, !tbaa !20
  %141 = getelementptr inbounds nuw %struct.WebPYUVABuffer, ptr %140, i32 0, i32 3
  %142 = load ptr, ptr %141, align 8, !tbaa !30
  %143 = load ptr, ptr %9, align 8, !tbaa !20
  %144 = getelementptr inbounds nuw %struct.WebPYUVABuffer, ptr %143, i32 0, i32 7
  %145 = load i32, ptr %144, align 4, !tbaa !31
  %146 = load ptr, ptr %4, align 8, !tbaa !7
  %147 = getelementptr inbounds nuw %struct.WebPDecBuffer, ptr %146, i32 0, i32 1
  %148 = load i32, ptr %147, align 4, !tbaa !43
  %149 = load ptr, ptr %4, align 8, !tbaa !7
  %150 = getelementptr inbounds nuw %struct.WebPDecBuffer, ptr %149, i32 0, i32 2
  %151 = load i32, ptr %150, align 8, !tbaa !15
  call void @WebPCopyPlane(ptr noundef %136, i32 noundef %139, ptr noundef %142, i32 noundef %145, i32 noundef %148, i32 noundef %151)
  br label %152

152:                                              ; preds = %133, %61
  call void @llvm.lifetime.end.p0(i64 8, ptr %9) #7
  call void @llvm.lifetime.end.p0(i64 8, ptr %8) #7
  br label %153

153:                                              ; preds = %152, %30
  store i32 0, ptr %3, align 4
  br label %154

154:                                              ; preds = %153, %23
  %155 = load i32, ptr %3, align 4
  ret i32 %155
}