; Function Attrs: nounwind uwtable
define hidden range(i32 0, 3) i32 @WebPCopyDecBufferPixels(ptr noundef readonly captures(none) %0, ptr noundef captures(none) initializes((4, 12)) %1) local_unnamed_addr #3 {
  %3 = getelementptr inbounds nuw i8, ptr %0, i64 4
  %4 = load i32, ptr %3, align 4, !tbaa !35
  %5 = getelementptr inbounds nuw i8, ptr %1, i64 4
  store i32 %4, ptr %5, align 4, !tbaa !35
  %6 = getelementptr inbounds nuw i8, ptr %0, i64 8
  %7 = load i32, ptr %6, align 8, !tbaa !10
  %8 = getelementptr inbounds nuw i8, ptr %1, i64 8
  store i32 %7, ptr %8, align 8, !tbaa !10
  %9 = tail call fastcc i32 @CheckDecBuffer(ptr noundef %1)
  %.not = icmp eq i32 %9, 0
  br i1 %.not, label %10, label %72

10:                                               ; preds = %2
  %11 = load i32, ptr %0, align 8, !tbaa !3
  %12 = icmp ugt i32 %11, 10
  %13 = getelementptr inbounds nuw i8, ptr %0, i64 16
  %14 = getelementptr inbounds nuw i8, ptr %1, i64 16
  %15 = load ptr, ptr %13, align 8, !tbaa !11
  %16 = load ptr, ptr %14, align 8, !tbaa !11
  br i1 %12, label %27, label %17

17:                                               ; preds = %10
  %18 = getelementptr inbounds nuw i8, ptr %0, i64 24
  %19 = load i32, ptr %18, align 8, !tbaa !12
  %20 = getelementptr inbounds nuw i8, ptr %1, i64 24
  %21 = load i32, ptr %20, align 8, !tbaa !12
  %22 = zext nneg i32 %11 to i64
  %23 = getelementptr inbounds nuw [13 x i8], ptr @kModeBpp, i64 0, i64 %22
  %24 = load i8, ptr %23, align 1, !tbaa !38
  %25 = zext i8 %24 to i32
  %26 = mul nsw i32 %4, %25
  tail call void @WebPCopyPlane(ptr noundef %15, i32 noundef %19, ptr noundef %16, i32 noundef %21, i32 noundef %26, i32 noundef %7) #10
  br label %72

27:                                               ; preds = %10
  %28 = getelementptr inbounds nuw i8, ptr %0, i64 48
  %29 = load i32, ptr %28, align 8, !tbaa !16
  %30 = getelementptr inbounds nuw i8, ptr %1, i64 48
  %31 = load i32, ptr %30, align 8, !tbaa !16
  tail call void @WebPCopyPlane(ptr noundef %15, i32 noundef %29, ptr noundef %16, i32 noundef %31, i32 noundef %4, i32 noundef %7) #10
  %32 = getelementptr inbounds nuw i8, ptr %0, i64 24
  %33 = load ptr, ptr %32, align 8, !tbaa !20
  %34 = getelementptr inbounds nuw i8, ptr %0, i64 52
  %35 = load i32, ptr %34, align 4, !tbaa !19
  %36 = getelementptr inbounds nuw i8, ptr %1, i64 24
  %37 = load ptr, ptr %36, align 8, !tbaa !20
  %38 = getelementptr inbounds nuw i8, ptr %1, i64 52
  %39 = load i32, ptr %38, align 4, !tbaa !19
  %40 = load i32, ptr %3, align 4, !tbaa !35
  %41 = add nsw i32 %40, 1
  %42 = sdiv i32 %41, 2
  %43 = load i32, ptr %6, align 8, !tbaa !10
  %44 = add nsw i32 %43, 1
  %45 = sdiv i32 %44, 2
  tail call void @WebPCopyPlane(ptr noundef %33, i32 noundef %35, ptr noundef %37, i32 noundef %39, i32 noundef %42, i32 noundef %45) #10
  %46 = getelementptr inbounds nuw i8, ptr %0, i64 32
  %47 = load ptr, ptr %46, align 8, !tbaa !22
  %48 = getelementptr inbounds nuw i8, ptr %0, i64 56
  %49 = load i32, ptr %48, align 8, !tbaa !21
  %50 = getelementptr inbounds nuw i8, ptr %1, i64 32
  %51 = load ptr, ptr %50, align 8, !tbaa !22
  %52 = getelementptr inbounds nuw i8, ptr %1, i64 56
  %53 = load i32, ptr %52, align 8, !tbaa !21
  %54 = load i32, ptr %3, align 4, !tbaa !35
  %55 = add nsw i32 %54, 1
  %56 = sdiv i32 %55, 2
  %57 = load i32, ptr %6, align 8, !tbaa !10
  %58 = add nsw i32 %57, 1
  %59 = sdiv i32 %58, 2
  tail call void @WebPCopyPlane(ptr noundef %47, i32 noundef %49, ptr noundef %51, i32 noundef %53, i32 noundef %56, i32 noundef %59) #10
  %60 = load i32, ptr %0, align 8, !tbaa !3
  switch i32 %60, label %WebPIsAlphaMode.exit [
    i32 12, label %WebPIsAlphaMode.exit.thread
    i32 5, label %WebPIsAlphaMode.exit.thread
    i32 4, label %WebPIsAlphaMode.exit.thread
    i32 3, label %WebPIsAlphaMode.exit.thread
    i32 1, label %WebPIsAlphaMode.exit.thread
  ]

WebPIsAlphaMode.exit:                             ; preds = %27
  %61 = add i32 %60, -11
  %narrow.i.i = icmp ult i32 %61, -4
  br i1 %narrow.i.i, label %72, label %WebPIsAlphaMode.exit.thread

WebPIsAlphaMode.exit.thread:                      ; preds = %27, %27, %27, %27, %27, %WebPIsAlphaMode.exit
  %62 = getelementptr inbounds nuw i8, ptr %0, i64 40
  %63 = load ptr, ptr %62, align 8, !tbaa !23
  %64 = getelementptr inbounds nuw i8, ptr %0, i64 60
  %65 = load i32, ptr %64, align 4, !tbaa !24
  %66 = getelementptr inbounds nuw i8, ptr %1, i64 40
  %67 = load ptr, ptr %66, align 8, !tbaa !23
  %68 = getelementptr inbounds nuw i8, ptr %1, i64 60
  %69 = load i32, ptr %68, align 4, !tbaa !24
  %70 = load i32, ptr %3, align 4, !tbaa !35
  %71 = load i32, ptr %6, align 8, !tbaa !10
  tail call void @WebPCopyPlane(ptr noundef %63, i32 noundef %65, ptr noundef %67, i32 noundef %69, i32 noundef %70, i32 noundef %71) #10
  br label %72

72:                                               ; preds = %17, %WebPIsAlphaMode.exit.thread, %WebPIsAlphaMode.exit, %2
  %.0 = phi i32 [ 2, %2 ], [ 0, %WebPIsAlphaMode.exit ], [ 0, %WebPIsAlphaMode.exit.thread ], [ 0, %17 ]
  ret i32 %.0
}